ARM GAS  C:\Users\Barney\AppData\Local\Temp\ccGNe6AD.s 			page 1


   1              		.syntax unified
   2              		.cpu cortex-m3
   3              		.fpu softvfp
   4              		.eabi_attribute 20, 1
   5              		.eabi_attribute 21, 1
   6              		.eabi_attribute 23, 3
   7              		.eabi_attribute 24, 1
   8              		.eabi_attribute 25, 1
   9              		.eabi_attribute 26, 1
  10              		.eabi_attribute 30, 1
  11              		.eabi_attribute 34, 1
  12              		.eabi_attribute 18, 4
  13              		.thumb
  14              		.syntax unified
  15              		.file	"main.c"
  16              		.text
  17              	.Ltext0:
  18              		.cfi_sections	.debug_frame
  19              		.section	.text.Estop_ISR_Handler,"ax",%progbits
  20              		.align	2
  21              		.global	Estop_ISR_Handler
  22              		.thumb
  23              		.thumb_func
  24              		.type	Estop_ISR_Handler, %function
  25              	Estop_ISR_Handler:
  26              	.LFB64:
  27              		.file 1 "main.c"
   1:main.c        **** /* ========================================
   2:main.c        ****  *
   3:main.c        ****  * Copyright YOUR COMPANY, THE YEAR
   4:main.c        ****  * All Rights Reserved
   5:main.c        ****  * UNPUBLISHED, LICENSED SOFTWARE.
   6:main.c        ****  *
   7:main.c        ****  * CONFIDENTIAL AND PROPRIETARY INFORMATION
   8:main.c        ****  * WHICH IS THE PROPERTY OF your company.
   9:main.c        ****  *
  10:main.c        ****  * ========================================
  11:main.c        **** */
  12:main.c        **** #include "project.h"
  13:main.c        **** #include <FS.h>
  14:main.c        **** #include <PCA9685_Custom.h>
  15:main.c        **** 
  16:main.c        **** ///////////////////Interrupt Handlers////////////////////
  17:main.c        ****     CY_ISR( Estop_ISR_Handler ) {
  28              		.loc 1 17 0
  29              		.cfi_startproc
  30              		@ args = 0, pretend = 0, frame = 0
  31              		@ frame_needed = 0, uses_anonymous_args = 0
  32 0000 08B5     		push	{r3, lr}
  33              		.cfi_def_cfa_offset 8
  34              		.cfi_offset 3, -8
  35              		.cfi_offset 14, -4
  18:main.c        ****         //estop routine here
  19:main.c        ****         Servo_En_1_Write(1);
  36              		.loc 1 19 0
  37 0002 0120     		movs	r0, #1
  38 0004 FFF7FEFF 		bl	Servo_En_1_Write
ARM GAS  C:\Users\Barney\AppData\Local\Temp\ccGNe6AD.s 			page 2


  39              	.LVL0:
  20:main.c        ****         Estop_ClearInterrupt();
  40              		.loc 1 20 0
  41 0008 FFF7FEFF 		bl	Estop_ClearInterrupt
  42              	.LVL1:
  43 000c 08BD     		pop	{r3, pc}
  44              		.cfi_endproc
  45              	.LFE64:
  46              		.size	Estop_ISR_Handler, .-Estop_ISR_Handler
  47 000e 00BF     		.section	.text.Detect_5V_Handler,"ax",%progbits
  48              		.align	2
  49              		.global	Detect_5V_Handler
  50              		.thumb
  51              		.thumb_func
  52              		.type	Detect_5V_Handler, %function
  53              	Detect_5V_Handler:
  54              	.LFB65:
  21:main.c        ****     }
  22:main.c        ****     
  23:main.c        ****     CY_ISR( Detect_5V_Handler ){
  55              		.loc 1 23 0
  56              		.cfi_startproc
  57              		@ args = 0, pretend = 0, frame = 0
  58              		@ frame_needed = 0, uses_anonymous_args = 0
  59 0000 08B5     		push	{r3, lr}
  60              		.cfi_def_cfa_offset 8
  61              		.cfi_offset 3, -8
  62              		.cfi_offset 14, -4
  24:main.c        ****         //Detect 5V Routine here
  25:main.c        ****         Servo_En_1_Write(0);
  63              		.loc 1 25 0
  64 0002 0020     		movs	r0, #0
  65 0004 FFF7FEFF 		bl	Servo_En_1_Write
  66              	.LVL2:
  26:main.c        ****         Detect_5V_ClearInterrupt();   
  67              		.loc 1 26 0
  68 0008 FFF7FEFF 		bl	Detect_5V_ClearInterrupt
  69              	.LVL3:
  70 000c 08BD     		pop	{r3, pc}
  71              		.cfi_endproc
  72              	.LFE65:
  73              		.size	Detect_5V_Handler, .-Detect_5V_Handler
  74 000e 00BF     		.section	.text.UPS_LBO_Handler,"ax",%progbits
  75              		.align	2
  76              		.global	UPS_LBO_Handler
  77              		.thumb
  78              		.thumb_func
  79              		.type	UPS_LBO_Handler, %function
  80              	UPS_LBO_Handler:
  81              	.LFB66:
  27:main.c        ****     }
  28:main.c        ****     
  29:main.c        ****     CY_ISR( UPS_LBO_Handler ){
  82              		.loc 1 29 0
  83              		.cfi_startproc
  84              		@ args = 0, pretend = 0, frame = 0
  85              		@ frame_needed = 0, uses_anonymous_args = 0
ARM GAS  C:\Users\Barney\AppData\Local\Temp\ccGNe6AD.s 			page 3


  86 0000 08B5     		push	{r3, lr}
  87              		.cfi_def_cfa_offset 8
  88              		.cfi_offset 3, -8
  89              		.cfi_offset 14, -4
  30:main.c        ****         //UPS LBO Routine here
  31:main.c        ****         UPS_LBO_ClearInterrupt();
  90              		.loc 1 31 0
  91 0002 FFF7FEFF 		bl	UPS_LBO_ClearInterrupt
  92              	.LVL4:
  93 0006 08BD     		pop	{r3, pc}
  94              		.cfi_endproc
  95              	.LFE66:
  96              		.size	UPS_LBO_Handler, .-UPS_LBO_Handler
  97              		.section	.text.main,"ax",%progbits
  98              		.align	2
  99              		.global	main
 100              		.thumb
 101              		.thumb_func
 102              		.type	main, %function
 103              	main:
 104              	.LFB67:
  32:main.c        ****     }
  33:main.c        **** 
  34:main.c        **** int main(void)
  35:main.c        **** {
 105              		.loc 1 35 0
 106              		.cfi_startproc
 107              		@ args = 0, pretend = 0, frame = 0
 108              		@ frame_needed = 0, uses_anonymous_args = 0
 109 0000 10B5     		push	{r4, lr}
 110              		.cfi_def_cfa_offset 8
 111              		.cfi_offset 4, -8
 112              		.cfi_offset 14, -4
  36:main.c        ****     ////////////////////Start Interrputs//////////////////////
  37:main.c        ****     CyGlobalIntEnable; /* Enable global interrupts. */
 113              		.loc 1 37 0
 114              		.syntax unified
 115              	@ 37 "main.c" 1
 116 0002 62B6     		CPSIE   i
 117              	@ 0 "" 2
  38:main.c        ****     Estop_int_StartEx( Estop_ISR_Handler );
 118              		.loc 1 38 0
 119              		.thumb
 120              		.syntax unified
 121 0004 1948     		ldr	r0, .L14
 122 0006 FFF7FEFF 		bl	Estop_int_StartEx
 123              	.LVL5:
  39:main.c        ****     Detect_5V_int_StartEx( Detect_5V_Handler );
 124              		.loc 1 39 0
 125 000a 1948     		ldr	r0, .L14+4
 126 000c FFF7FEFF 		bl	Detect_5V_int_StartEx
 127              	.LVL6:
  40:main.c        ****     UPS_LBO_int_StartEx( UPS_LBO_Handler);
 128              		.loc 1 40 0
 129 0010 1848     		ldr	r0, .L14+8
 130 0012 FFF7FEFF 		bl	UPS_LBO_int_StartEx
 131              	.LVL7:
ARM GAS  C:\Users\Barney\AppData\Local\Temp\ccGNe6AD.s 			page 4


  41:main.c        ****         
  42:main.c        ****     PCA9685_Custom_Begin();
 132              		.loc 1 42 0
 133 0016 FFF7FEFF 		bl	PCA9685_Custom_Begin
 134              	.LVL8:
 135              	.L12:
 136              	.LBB2:
 137              	.LBB3:
  43:main.c        **** 
  44:main.c        ****  
  45:main.c        **** 
  46:main.c        ****     for(;;)
  47:main.c        ****     {
  48:main.c        ****         /* Place your application code here. */
  49:main.c        ****         uint16_t lowLimit = 0;
  50:main.c        ****         uint16_t highLimit = 600;
  51:main.c        ****         
  52:main.c        ****         for(uint16_t i =lowLimit ; i<highLimit;i++){
 138              		.loc 1 52 0
 139 001a 0024     		movs	r4, #0
 140 001c 0EE0     		b	.L8
 141              	.LVL9:
 142              	.L9:
  53:main.c        ****         PCA9685_Custom_setPWM(1,0,i);
 143              		.loc 1 53 0 discriminator 3
 144 001e 2246     		mov	r2, r4
 145 0020 0021     		movs	r1, #0
 146 0022 0120     		movs	r0, #1
 147 0024 FFF7FEFF 		bl	PCA9685_Custom_setPWM
 148              	.LVL10:
  54:main.c        ****         PCA9685_Custom_setPWM(5,0,i);
 149              		.loc 1 54 0 discriminator 3
 150 0028 2246     		mov	r2, r4
 151 002a 0021     		movs	r1, #0
 152 002c 0520     		movs	r0, #5
 153 002e FFF7FEFF 		bl	PCA9685_Custom_setPWM
 154              	.LVL11:
  55:main.c        ****         CyDelay(10);
 155              		.loc 1 55 0 discriminator 3
 156 0032 0A20     		movs	r0, #10
 157 0034 FFF7FEFF 		bl	CyDelay
 158              	.LVL12:
  52:main.c        ****         PCA9685_Custom_setPWM(1,0,i);
 159              		.loc 1 52 0 discriminator 3
 160 0038 0134     		adds	r4, r4, #1
 161              	.LVL13:
 162 003a A4B2     		uxth	r4, r4
 163              	.LVL14:
 164              	.L8:
  52:main.c        ****         PCA9685_Custom_setPWM(1,0,i);
 165              		.loc 1 52 0 is_stmt 0 discriminator 1
 166 003c B4F5167F 		cmp	r4, #600
 167 0040 EDD3     		bcc	.L9
 168 0042 4FF41674 		mov	r4, #600
 169              	.LVL15:
 170 0046 0EE0     		b	.L10
 171              	.LVL16:
ARM GAS  C:\Users\Barney\AppData\Local\Temp\ccGNe6AD.s 			page 5


 172              	.L11:
 173              	.LBE3:
 174              	.LBB4:
  56:main.c        ****         }
  57:main.c        ****         for(uint16_t i =highLimit ; i>lowLimit;i--){
  58:main.c        ****         PCA9685_Custom_setPWM(1,0,i);
 175              		.loc 1 58 0 is_stmt 1 discriminator 3
 176 0048 2246     		mov	r2, r4
 177 004a 0021     		movs	r1, #0
 178 004c 0120     		movs	r0, #1
 179 004e FFF7FEFF 		bl	PCA9685_Custom_setPWM
 180              	.LVL17:
  59:main.c        ****         PCA9685_Custom_setPWM(5,0,i);
 181              		.loc 1 59 0 discriminator 3
 182 0052 2246     		mov	r2, r4
 183 0054 0021     		movs	r1, #0
 184 0056 0520     		movs	r0, #5
 185 0058 FFF7FEFF 		bl	PCA9685_Custom_setPWM
 186              	.LVL18:
  60:main.c        ****         CyDelay(10);
 187              		.loc 1 60 0 discriminator 3
 188 005c 0A20     		movs	r0, #10
 189 005e FFF7FEFF 		bl	CyDelay
 190              	.LVL19:
  57:main.c        ****         PCA9685_Custom_setPWM(1,0,i);
 191              		.loc 1 57 0 discriminator 3
 192 0062 013C     		subs	r4, r4, #1
 193              	.LVL20:
 194 0064 A4B2     		uxth	r4, r4
 195              	.LVL21:
 196              	.L10:
  57:main.c        ****         PCA9685_Custom_setPWM(1,0,i);
 197              		.loc 1 57 0 is_stmt 0 discriminator 1
 198 0066 002C     		cmp	r4, #0
 199 0068 EED1     		bne	.L11
 200 006a D6E7     		b	.L12
 201              	.L15:
 202              		.align	2
 203              	.L14:
 204 006c 00000000 		.word	Estop_ISR_Handler
 205 0070 00000000 		.word	Detect_5V_Handler
 206 0074 00000000 		.word	UPS_LBO_Handler
 207              	.LBE4:
 208              	.LBE2:
 209              		.cfi_endproc
 210              	.LFE67:
 211              		.size	main, .-main
 212              		.text
 213              	.Letext0:
 214              		.file 2 "c:\\program files (x86)\\cypress\\psoc creator\\4.2\\psoc creator\\import\\gnu\\arm\\5.4.
 215              		.file 3 "c:\\program files (x86)\\cypress\\psoc creator\\4.2\\psoc creator\\import\\gnu\\arm\\5.4.
 216              		.file 4 "Generated_Source\\PSoC5/Servo_En_1.h"
 217              		.file 5 "Generated_Source\\PSoC5/Estop.h"
 218              		.file 6 "Generated_Source\\PSoC5/Detect_5V.h"
 219              		.file 7 "Generated_Source\\PSoC5/UPS_LBO.h"
 220              		.file 8 "./PCA9685_Custom.h"
 221              		.file 9 "Generated_Source\\PSoC5/CyLib.h"
ARM GAS  C:\Users\Barney\AppData\Local\Temp\ccGNe6AD.s 			page 6


 222              		.file 10 "Generated_Source\\PSoC5/Estop_int.h"
 223              		.file 11 "Generated_Source\\PSoC5/Detect_5V_int.h"
 224              		.file 12 "Generated_Source\\PSoC5/UPS_LBO_int.h"
 225              		.file 13 "Generated_Source\\PSoC5/core_cm3.h"