ARM GAS  C:\Users\Barney\AppData\Local\Temp\ccGhs5v4.s 			page 1


   1              		.syntax unified
   2              		.cpu cortex-m3
   3              		.fpu softvfp
   4              		.eabi_attribute 20, 1
   5              		.eabi_attribute 21, 1
   6              		.eabi_attribute 23, 3
   7              		.eabi_attribute 24, 1
   8              		.eabi_attribute 25, 1
   9              		.eabi_attribute 26, 1
  10              		.eabi_attribute 30, 1
  11              		.eabi_attribute 34, 1
  12              		.eabi_attribute 18, 4
  13              		.thumb
  14              		.syntax unified
  15              		.file	"PCA9685_Custom.c"
  16              		.text
  17              	.Ltext0:
  18              		.cfi_sections	.debug_frame
  19              		.section	.text.PCA9685_Custom_Flash_All,"ax",%progbits
  20              		.align	2
  21              		.global	PCA9685_Custom_Flash_All
  22              		.thumb
  23              		.thumb_func
  24              		.type	PCA9685_Custom_Flash_All, %function
  25              	PCA9685_Custom_Flash_All:
  26              	.LFB65:
  27              		.file 1 "PCA9685_Custom.c"
   1:PCA9685_Custom.c **** /* ========================================
   2:PCA9685_Custom.c ****  *
   3:PCA9685_Custom.c ****  * Copyright YOUR COMPANY, THE YEAR
   4:PCA9685_Custom.c ****  * All Rights Reserved
   5:PCA9685_Custom.c ****  * UNPUBLISHED, LICENSED SOFTWARE.
   6:PCA9685_Custom.c ****  *
   7:PCA9685_Custom.c ****  * CONFIDENTIAL AND PROPRIETARY INFORMATION
   8:PCA9685_Custom.c ****  * WHICH IS THE PROPERTY OF your company.
   9:PCA9685_Custom.c ****  *
  10:PCA9685_Custom.c ****  * ========================================
  11:PCA9685_Custom.c **** */
  12:PCA9685_Custom.c **** #include <PCA9685_Custom.h>
  13:PCA9685_Custom.c **** #include <math.h>
  14:PCA9685_Custom.c **** #define I2C_SLAVE_ADDR      (0x40u)
  15:PCA9685_Custom.c **** 
  16:PCA9685_Custom.c **** //float freq = 1600.0;
  17:PCA9685_Custom.c **** float oscillator_frequency = 27000000;
  18:PCA9685_Custom.c **** 
  19:PCA9685_Custom.c **** void PCA9685_Custom_Begin(){
  20:PCA9685_Custom.c ****     I2C_1_Start();
  21:PCA9685_Custom.c ****     PCA9685_Custom_Reset();
  22:PCA9685_Custom.c ****     PCA9685_Custom_setPWMFreq(60);
  23:PCA9685_Custom.c **** }
  24:PCA9685_Custom.c **** 
  25:PCA9685_Custom.c **** void PCA9685_Custom_Flash_All(){
  28              		.loc 1 25 0
  29              		.cfi_startproc
  30              		@ args = 0, pretend = 0, frame = 0
  31              		@ frame_needed = 0, uses_anonymous_args = 0
  32 0000 08B5     		push	{r3, lr}
ARM GAS  C:\Users\Barney\AppData\Local\Temp\ccGhs5v4.s 			page 2


  33              		.cfi_def_cfa_offset 8
  34              		.cfi_offset 3, -8
  35              		.cfi_offset 14, -4
  26:PCA9685_Custom.c ****         I2C_1_MasterSendStart(0x40, 0);     //Start Transmission to Servo controller
  36              		.loc 1 26 0
  37 0002 0021     		movs	r1, #0
  38 0004 4020     		movs	r0, #64
  39 0006 FFF7FEFF 		bl	I2C_1_MasterSendStart
  40              	.LVL0:
  27:PCA9685_Custom.c ****         I2C_1_MasterWriteByte(0xFA);        //Start write to channel 1 on/off times
  41              		.loc 1 27 0
  42 000a FA20     		movs	r0, #250
  43 000c FFF7FEFF 		bl	I2C_1_MasterWriteByte
  44              	.LVL1:
  28:PCA9685_Custom.c ****         I2C_1_MasterWriteByte(0x00);        //Ch1 On time, Low byte
  45              		.loc 1 28 0
  46 0010 0020     		movs	r0, #0
  47 0012 FFF7FEFF 		bl	I2C_1_MasterWriteByte
  48              	.LVL2:
  29:PCA9685_Custom.c ****         I2C_1_MasterWriteByte(0xFB);        //Start write to channel 1 on/off times
  49              		.loc 1 29 0
  50 0016 FB20     		movs	r0, #251
  51 0018 FFF7FEFF 		bl	I2C_1_MasterWriteByte
  52              	.LVL3:
  30:PCA9685_Custom.c ****         I2C_1_MasterWriteByte(0x00);        //ch1 On time, High byte
  53              		.loc 1 30 0
  54 001c 0020     		movs	r0, #0
  55 001e FFF7FEFF 		bl	I2C_1_MasterWriteByte
  56              	.LVL4:
  31:PCA9685_Custom.c ****         I2C_1_MasterWriteByte(0xFC);        //Start write to channel 1 on/off times
  57              		.loc 1 31 0
  58 0022 FC20     		movs	r0, #252
  59 0024 FFF7FEFF 		bl	I2C_1_MasterWriteByte
  60              	.LVL5:
  32:PCA9685_Custom.c ****         I2C_1_MasterWriteByte(0x01);        //Ch1 Off time, Low byte
  61              		.loc 1 32 0
  62 0028 0120     		movs	r0, #1
  63 002a FFF7FEFF 		bl	I2C_1_MasterWriteByte
  64              	.LVL6:
  33:PCA9685_Custom.c ****         I2C_1_MasterWriteByte(0xFD);        //Start write to channel 1 on/off times
  65              		.loc 1 33 0
  66 002e FD20     		movs	r0, #253
  67 0030 FFF7FEFF 		bl	I2C_1_MasterWriteByte
  68              	.LVL7:
  34:PCA9685_Custom.c ****         I2C_1_MasterWriteByte(0x00);        //Ch1 Off time, High byte
  69              		.loc 1 34 0
  70 0034 0020     		movs	r0, #0
  71 0036 FFF7FEFF 		bl	I2C_1_MasterWriteByte
  72              	.LVL8:
  35:PCA9685_Custom.c ****         I2C_1_MasterSendStop();
  73              		.loc 1 35 0
  74 003a FFF7FEFF 		bl	I2C_1_MasterSendStop
  75              	.LVL9:
  36:PCA9685_Custom.c ****         CyDelay(1000);
  76              		.loc 1 36 0
  77 003e 4FF47A70 		mov	r0, #1000
  78 0042 FFF7FEFF 		bl	CyDelay
ARM GAS  C:\Users\Barney\AppData\Local\Temp\ccGhs5v4.s 			page 3


  79              	.LVL10:
  37:PCA9685_Custom.c ****         I2C_1_MasterSendStart(0x40, 0);
  80              		.loc 1 37 0
  81 0046 0021     		movs	r1, #0
  82 0048 4020     		movs	r0, #64
  83 004a FFF7FEFF 		bl	I2C_1_MasterSendStart
  84              	.LVL11:
  38:PCA9685_Custom.c ****         I2C_1_MasterWriteByte(0xFA);
  85              		.loc 1 38 0
  86 004e FA20     		movs	r0, #250
  87 0050 FFF7FEFF 		bl	I2C_1_MasterWriteByte
  88              	.LVL12:
  39:PCA9685_Custom.c ****         I2C_1_MasterWriteByte(0x00);
  89              		.loc 1 39 0
  90 0054 0020     		movs	r0, #0
  91 0056 FFF7FEFF 		bl	I2C_1_MasterWriteByte
  92              	.LVL13:
  40:PCA9685_Custom.c ****         I2C_1_MasterWriteByte(0xFB);        //Start write to channel 1 on/off times
  93              		.loc 1 40 0
  94 005a FB20     		movs	r0, #251
  95 005c FFF7FEFF 		bl	I2C_1_MasterWriteByte
  96              	.LVL14:
  41:PCA9685_Custom.c ****         I2C_1_MasterWriteByte(0x00);
  97              		.loc 1 41 0
  98 0060 0020     		movs	r0, #0
  99 0062 FFF7FEFF 		bl	I2C_1_MasterWriteByte
 100              	.LVL15:
  42:PCA9685_Custom.c ****         I2C_1_MasterWriteByte(0xFC);        //Start write to channel 1 on/off times
 101              		.loc 1 42 0
 102 0066 FC20     		movs	r0, #252
 103 0068 FFF7FEFF 		bl	I2C_1_MasterWriteByte
 104              	.LVL16:
  43:PCA9685_Custom.c ****         I2C_1_MasterWriteByte(0x00);
 105              		.loc 1 43 0
 106 006c 0020     		movs	r0, #0
 107 006e FFF7FEFF 		bl	I2C_1_MasterWriteByte
 108              	.LVL17:
  44:PCA9685_Custom.c ****         I2C_1_MasterWriteByte(0xFD);        //Start write to channel 1 on/off times
 109              		.loc 1 44 0
 110 0072 FD20     		movs	r0, #253
 111 0074 FFF7FEFF 		bl	I2C_1_MasterWriteByte
 112              	.LVL18:
  45:PCA9685_Custom.c ****         I2C_1_MasterWriteByte(0xFF);
 113              		.loc 1 45 0
 114 0078 FF20     		movs	r0, #255
 115 007a FFF7FEFF 		bl	I2C_1_MasterWriteByte
 116              	.LVL19:
  46:PCA9685_Custom.c ****         I2C_1_MasterSendStop();
 117              		.loc 1 46 0
 118 007e FFF7FEFF 		bl	I2C_1_MasterSendStop
 119              	.LVL20:
  47:PCA9685_Custom.c ****         CyDelay(1000);
 120              		.loc 1 47 0
 121 0082 4FF47A70 		mov	r0, #1000
 122 0086 FFF7FEFF 		bl	CyDelay
 123              	.LVL21:
 124 008a 08BD     		pop	{r3, pc}
ARM GAS  C:\Users\Barney\AppData\Local\Temp\ccGhs5v4.s 			page 4


 125              		.cfi_endproc
 126              	.LFE65:
 127              		.size	PCA9685_Custom_Flash_All, .-PCA9685_Custom_Flash_All
 128              		.section	.text.PCA9685_Custom_setPWM,"ax",%progbits
 129              		.align	2
 130              		.global	PCA9685_Custom_setPWM
 131              		.thumb
 132              		.thumb_func
 133              		.type	PCA9685_Custom_setPWM, %function
 134              	PCA9685_Custom_setPWM:
 135              	.LFB67:
  48:PCA9685_Custom.c **** }
  49:PCA9685_Custom.c **** 
  50:PCA9685_Custom.c **** void PCA9685_Custom_Reset(void) {
  51:PCA9685_Custom.c ****  PCA9685_Custom_Write8(PCA9685_MODE1, 0x80);
  52:PCA9685_Custom.c **** }
  53:PCA9685_Custom.c **** 
  54:PCA9685_Custom.c **** void PCA9685_Custom_setPWM(uint8 num, uint16 on, uint16 off){
 136              		.loc 1 54 0
 137              		.cfi_startproc
 138              		@ args = 0, pretend = 0, frame = 0
 139              		@ frame_needed = 0, uses_anonymous_args = 0
 140              	.LVL22:
 141 0000 70B5     		push	{r4, r5, r6, lr}
 142              		.cfi_def_cfa_offset 16
 143              		.cfi_offset 4, -16
 144              		.cfi_offset 5, -12
 145              		.cfi_offset 6, -8
 146              		.cfi_offset 14, -4
 147 0002 0446     		mov	r4, r0
 148 0004 0E46     		mov	r6, r1
 149 0006 1546     		mov	r5, r2
  55:PCA9685_Custom.c ****   I2C_1_MasterSendStart(I2C_SLAVE_ADDR, I2C_WRITE_XFER_MODE);
 150              		.loc 1 55 0
 151 0008 0021     		movs	r1, #0
 152              	.LVL23:
 153 000a 4020     		movs	r0, #64
 154              	.LVL24:
 155 000c FFF7FEFF 		bl	I2C_1_MasterSendStart
 156              	.LVL25:
  56:PCA9685_Custom.c ****   I2C_1_MasterWriteByte(CH0_ON_L+(0x04*num));
 157              		.loc 1 56 0
 158 0010 A000     		lsls	r0, r4, #2
 159 0012 0630     		adds	r0, r0, #6
 160 0014 00F0FE00 		and	r0, r0, #254
 161 0018 FFF7FEFF 		bl	I2C_1_MasterWriteByte
 162              	.LVL26:
  57:PCA9685_Custom.c ****   I2C_1_MasterWriteByte(on);
 163              		.loc 1 57 0
 164 001c F0B2     		uxtb	r0, r6
 165 001e FFF7FEFF 		bl	I2C_1_MasterWriteByte
 166              	.LVL27:
  58:PCA9685_Custom.c ****   I2C_1_MasterWriteByte(on>>8);
 167              		.loc 1 58 0
 168 0022 300A     		lsrs	r0, r6, #8
 169 0024 FFF7FEFF 		bl	I2C_1_MasterWriteByte
 170              	.LVL28:
ARM GAS  C:\Users\Barney\AppData\Local\Temp\ccGhs5v4.s 			page 5


  59:PCA9685_Custom.c ****   I2C_1_MasterWriteByte(off);
 171              		.loc 1 59 0
 172 0028 E8B2     		uxtb	r0, r5
 173 002a FFF7FEFF 		bl	I2C_1_MasterWriteByte
 174              	.LVL29:
  60:PCA9685_Custom.c ****   I2C_1_MasterWriteByte(off>>8);
 175              		.loc 1 60 0
 176 002e 280A     		lsrs	r0, r5, #8
 177 0030 FFF7FEFF 		bl	I2C_1_MasterWriteByte
 178              	.LVL30:
  61:PCA9685_Custom.c ****   I2C_1_MasterSendStop();
 179              		.loc 1 61 0
 180 0034 FFF7FEFF 		bl	I2C_1_MasterSendStop
 181              	.LVL31:
 182 0038 70BD     		pop	{r4, r5, r6, pc}
 183              		.cfi_endproc
 184              	.LFE67:
 185              		.size	PCA9685_Custom_setPWM, .-PCA9685_Custom_setPWM
 186 003a 00BF     		.section	.text.PCA9685_Custom_Set_All_PWM,"ax",%progbits
 187              		.align	2
 188              		.global	PCA9685_Custom_Set_All_PWM
 189              		.thumb
 190              		.thumb_func
 191              		.type	PCA9685_Custom_Set_All_PWM, %function
 192              	PCA9685_Custom_Set_All_PWM:
 193              	.LFB68:
  62:PCA9685_Custom.c **** }
  63:PCA9685_Custom.c **** 
  64:PCA9685_Custom.c **** void PCA9685_Custom_Set_All_PWM(uint16 on, uint16 off){
 194              		.loc 1 64 0
 195              		.cfi_startproc
 196              		@ args = 0, pretend = 0, frame = 0
 197              		@ frame_needed = 0, uses_anonymous_args = 0
 198              	.LVL32:
 199 0000 38B5     		push	{r3, r4, r5, lr}
 200              		.cfi_def_cfa_offset 16
 201              		.cfi_offset 3, -16
 202              		.cfi_offset 4, -12
 203              		.cfi_offset 5, -8
 204              		.cfi_offset 14, -4
 205 0002 0546     		mov	r5, r0
 206 0004 0C46     		mov	r4, r1
  65:PCA9685_Custom.c ****   I2C_1_MasterSendStart(I2C_SLAVE_ADDR, I2C_WRITE_XFER_MODE);
 207              		.loc 1 65 0
 208 0006 0021     		movs	r1, #0
 209              	.LVL33:
 210 0008 4020     		movs	r0, #64
 211              	.LVL34:
 212 000a FFF7FEFF 		bl	I2C_1_MasterSendStart
 213              	.LVL35:
  66:PCA9685_Custom.c ****   I2C_1_MasterWriteByte(ALLLED_ON_L);
 214              		.loc 1 66 0
 215 000e FA20     		movs	r0, #250
 216 0010 FFF7FEFF 		bl	I2C_1_MasterWriteByte
 217              	.LVL36:
  67:PCA9685_Custom.c ****   I2C_1_MasterWriteByte(on);
 218              		.loc 1 67 0
ARM GAS  C:\Users\Barney\AppData\Local\Temp\ccGhs5v4.s 			page 6


 219 0014 E8B2     		uxtb	r0, r5
 220 0016 FFF7FEFF 		bl	I2C_1_MasterWriteByte
 221              	.LVL37:
  68:PCA9685_Custom.c ****   I2C_1_MasterWriteByte(ALLLED_ON_H);
 222              		.loc 1 68 0
 223 001a FB20     		movs	r0, #251
 224 001c FFF7FEFF 		bl	I2C_1_MasterWriteByte
 225              	.LVL38:
  69:PCA9685_Custom.c ****   I2C_1_MasterWriteByte(on>>8);
 226              		.loc 1 69 0
 227 0020 280A     		lsrs	r0, r5, #8
 228 0022 FFF7FEFF 		bl	I2C_1_MasterWriteByte
 229              	.LVL39:
  70:PCA9685_Custom.c ****   I2C_1_MasterWriteByte(ALLLED_OFF_L);
 230              		.loc 1 70 0
 231 0026 FC20     		movs	r0, #252
 232 0028 FFF7FEFF 		bl	I2C_1_MasterWriteByte
 233              	.LVL40:
  71:PCA9685_Custom.c ****   I2C_1_MasterWriteByte(off);
 234              		.loc 1 71 0
 235 002c E0B2     		uxtb	r0, r4
 236 002e FFF7FEFF 		bl	I2C_1_MasterWriteByte
 237              	.LVL41:
  72:PCA9685_Custom.c ****   I2C_1_MasterWriteByte(ALLLED_ON_H);
 238              		.loc 1 72 0
 239 0032 FB20     		movs	r0, #251
 240 0034 FFF7FEFF 		bl	I2C_1_MasterWriteByte
 241              	.LVL42:
  73:PCA9685_Custom.c ****   I2C_1_MasterWriteByte(off>>8);
 242              		.loc 1 73 0
 243 0038 200A     		lsrs	r0, r4, #8
 244 003a FFF7FEFF 		bl	I2C_1_MasterWriteByte
 245              	.LVL43:
  74:PCA9685_Custom.c ****   I2C_1_MasterSendStop();
 246              		.loc 1 74 0
 247 003e FFF7FEFF 		bl	I2C_1_MasterSendStop
 248              	.LVL44:
 249 0042 38BD     		pop	{r3, r4, r5, pc}
 250              		.cfi_endproc
 251              	.LFE68:
 252              		.size	PCA9685_Custom_Set_All_PWM, .-PCA9685_Custom_Set_All_PWM
 253              		.section	.text.PCA9685_Custom_Write8,"ax",%progbits
 254              		.align	2
 255              		.global	PCA9685_Custom_Write8
 256              		.thumb
 257              		.thumb_func
 258              		.type	PCA9685_Custom_Write8, %function
 259              	PCA9685_Custom_Write8:
 260              	.LFB70:
  75:PCA9685_Custom.c **** }
  76:PCA9685_Custom.c **** 
  77:PCA9685_Custom.c **** void PCA9685_Custom_setPWMFreq(float freq) {
  78:PCA9685_Custom.c ****   //Serial.print("Attempting to set freq ");
  79:PCA9685_Custom.c ****   //Serial.println(freq);
  80:PCA9685_Custom.c ****   freq *= 0.9;  // Correct for overshoot in the frequency setting (see issue #11).
  81:PCA9685_Custom.c ****   float prescaleval = 25000000;
  82:PCA9685_Custom.c ****   prescaleval /= 4096;
ARM GAS  C:\Users\Barney\AppData\Local\Temp\ccGhs5v4.s 			page 7


  83:PCA9685_Custom.c ****   prescaleval /= freq;
  84:PCA9685_Custom.c ****   prescaleval -= 1;
  85:PCA9685_Custom.c ****  
  86:PCA9685_Custom.c ****   uint8_t prescale = floor(prescaleval + 0.5);
  87:PCA9685_Custom.c ****    
  88:PCA9685_Custom.c ****   uint8_t oldmode = PCA9685_Custom_Read8(PCA9685_MODE1);
  89:PCA9685_Custom.c ****   uint8_t newmode = (oldmode&0x7F) | 0x10; // sleep
  90:PCA9685_Custom.c ****   PCA9685_Custom_Write8(PCA9685_MODE1, newmode); // go to sleep
  91:PCA9685_Custom.c ****   PCA9685_Custom_Write8(PCA9685_PRESCALE, prescale); // set the prescaler
  92:PCA9685_Custom.c ****   PCA9685_Custom_Write8(PCA9685_MODE1, oldmode);
  93:PCA9685_Custom.c ****   CyDelayUs(5);  
  94:PCA9685_Custom.c ****   PCA9685_Custom_Write8(PCA9685_MODE1, oldmode | 0xa1);  //  This sets the MODE1 register to turn o
  95:PCA9685_Custom.c **** }
  96:PCA9685_Custom.c **** 
  97:PCA9685_Custom.c **** uint8_t PCA9685_Custom_Write8(uint8_t reg, uint8_t data){
 261              		.loc 1 97 0
 262              		.cfi_startproc
 263              		@ args = 0, pretend = 0, frame = 0
 264              		@ frame_needed = 0, uses_anonymous_args = 0
 265              	.LVL45:
 266 0000 38B5     		push	{r3, r4, r5, lr}
 267              		.cfi_def_cfa_offset 16
 268              		.cfi_offset 3, -16
 269              		.cfi_offset 4, -12
 270              		.cfi_offset 5, -8
 271              		.cfi_offset 14, -4
 272 0002 0446     		mov	r4, r0
 273 0004 0D46     		mov	r5, r1
  98:PCA9685_Custom.c ****     uint8_t Result;
  99:PCA9685_Custom.c ****     if((Result = I2C_1_MasterSendStart(I2C_SLAVE_ADDR, I2C_WRITE_XFER_MODE))) return Result;
 274              		.loc 1 99 0
 275 0006 0021     		movs	r1, #0
 276              	.LVL46:
 277 0008 4020     		movs	r0, #64
 278              	.LVL47:
 279 000a FFF7FEFF 		bl	I2C_1_MasterSendStart
 280              	.LVL48:
 281 000e 50B9     		cbnz	r0, .L9
 100:PCA9685_Custom.c ****     if((Result = I2C_1_MasterWriteByte(reg))) return Result;
 282              		.loc 1 100 0
 283 0010 2046     		mov	r0, r4
 284              	.LVL49:
 285 0012 FFF7FEFF 		bl	I2C_1_MasterWriteByte
 286              	.LVL50:
 287 0016 38B9     		cbnz	r0, .L10
 101:PCA9685_Custom.c ****     if((Result = I2C_1_MasterWriteByte(data))) return Result;
 288              		.loc 1 101 0
 289 0018 2846     		mov	r0, r5
 290              	.LVL51:
 291 001a FFF7FEFF 		bl	I2C_1_MasterWriteByte
 292              	.LVL52:
 293 001e 20B9     		cbnz	r0, .L11
 102:PCA9685_Custom.c ****     if((Result = I2C_1_MasterSendStop())) return Result;
 294              		.loc 1 102 0
 295 0020 FFF7FEFF 		bl	I2C_1_MasterSendStop
 296              	.LVL53:
 297 0024 38BD     		pop	{r3, r4, r5, pc}
ARM GAS  C:\Users\Barney\AppData\Local\Temp\ccGhs5v4.s 			page 8


 298              	.L9:
 299 0026 38BD     		pop	{r3, r4, r5, pc}
 300              	.L10:
 301 0028 38BD     		pop	{r3, r4, r5, pc}
 302              	.L11:
 103:PCA9685_Custom.c ****     return Result;
 104:PCA9685_Custom.c **** }
 303              		.loc 1 104 0
 304 002a 38BD     		pop	{r3, r4, r5, pc}
 305              		.cfi_endproc
 306              	.LFE70:
 307              		.size	PCA9685_Custom_Write8, .-PCA9685_Custom_Write8
 308              		.section	.text.PCA9685_Custom_Reset,"ax",%progbits
 309              		.align	2
 310              		.global	PCA9685_Custom_Reset
 311              		.thumb
 312              		.thumb_func
 313              		.type	PCA9685_Custom_Reset, %function
 314              	PCA9685_Custom_Reset:
 315              	.LFB66:
  50:PCA9685_Custom.c ****  PCA9685_Custom_Write8(PCA9685_MODE1, 0x80);
 316              		.loc 1 50 0
 317              		.cfi_startproc
 318              		@ args = 0, pretend = 0, frame = 0
 319              		@ frame_needed = 0, uses_anonymous_args = 0
 320 0000 08B5     		push	{r3, lr}
 321              		.cfi_def_cfa_offset 8
 322              		.cfi_offset 3, -8
 323              		.cfi_offset 14, -4
  51:PCA9685_Custom.c **** }
 324              		.loc 1 51 0
 325 0002 8021     		movs	r1, #128
 326 0004 0020     		movs	r0, #0
 327 0006 FFF7FEFF 		bl	PCA9685_Custom_Write8
 328              	.LVL54:
 329 000a 08BD     		pop	{r3, pc}
 330              		.cfi_endproc
 331              	.LFE66:
 332              		.size	PCA9685_Custom_Reset, .-PCA9685_Custom_Reset
 333              		.section	.text.PCA9685_Custom_Read8,"ax",%progbits
 334              		.align	2
 335              		.global	PCA9685_Custom_Read8
 336              		.thumb
 337              		.thumb_func
 338              		.type	PCA9685_Custom_Read8, %function
 339              	PCA9685_Custom_Read8:
 340              	.LFB71:
 105:PCA9685_Custom.c **** 
 106:PCA9685_Custom.c **** uint8_t PCA9685_Custom_Read8(uint8_t reg){
 341              		.loc 1 106 0
 342              		.cfi_startproc
 343              		@ args = 0, pretend = 0, frame = 0
 344              		@ frame_needed = 0, uses_anonymous_args = 0
 345              	.LVL55:
 346 0000 10B5     		push	{r4, lr}
 347              		.cfi_def_cfa_offset 8
 348              		.cfi_offset 4, -8
ARM GAS  C:\Users\Barney\AppData\Local\Temp\ccGhs5v4.s 			page 9


 349              		.cfi_offset 14, -4
 350 0002 0446     		mov	r4, r0
 351              	.LVL56:
 107:PCA9685_Custom.c ****   uint8_t response = 0x00;
 108:PCA9685_Custom.c ****   I2C_1_MasterSendStart(I2C_SLAVE_ADDR, I2C_WRITE_XFER_MODE);
 352              		.loc 1 108 0
 353 0004 0021     		movs	r1, #0
 354 0006 4020     		movs	r0, #64
 355              	.LVL57:
 356 0008 FFF7FEFF 		bl	I2C_1_MasterSendStart
 357              	.LVL58:
 109:PCA9685_Custom.c ****   I2C_1_MasterWriteByte(reg);
 358              		.loc 1 109 0
 359 000c 2046     		mov	r0, r4
 360 000e FFF7FEFF 		bl	I2C_1_MasterWriteByte
 361              	.LVL59:
 110:PCA9685_Custom.c ****   I2C_1_MasterSendRestart(I2C_SLAVE_ADDR, I2C_READ_XFER_MODE);
 362              		.loc 1 110 0
 363 0012 0121     		movs	r1, #1
 364 0014 4020     		movs	r0, #64
 365 0016 FFF7FEFF 		bl	I2C_1_MasterSendRestart
 366              	.LVL60:
 111:PCA9685_Custom.c ****   response =  I2C_1_MasterReadByte(I2C_NAK_DATA);
 367              		.loc 1 111 0
 368 001a 0020     		movs	r0, #0
 369 001c FFF7FEFF 		bl	I2C_1_MasterReadByte
 370              	.LVL61:
 371 0020 0446     		mov	r4, r0
 372              	.LVL62:
 112:PCA9685_Custom.c ****   I2C_1_MasterSendStop();
 373              		.loc 1 112 0
 374 0022 FFF7FEFF 		bl	I2C_1_MasterSendStop
 375              	.LVL63:
 113:PCA9685_Custom.c **** 
 114:PCA9685_Custom.c ****   return response; 
 115:PCA9685_Custom.c **** }
 376              		.loc 1 115 0
 377 0026 2046     		mov	r0, r4
 378 0028 10BD     		pop	{r4, pc}
 379              		.cfi_endproc
 380              	.LFE71:
 381              		.size	PCA9685_Custom_Read8, .-PCA9685_Custom_Read8
 382              		.global	__aeabi_f2d
 383              		.global	__aeabi_dmul
 384              		.global	__aeabi_d2f
 385              		.global	__aeabi_fdiv
 386              		.global	__aeabi_fsub
 387              		.global	__aeabi_dadd
 388              		.global	__aeabi_d2uiz
 389 002a 00BF     		.section	.text.PCA9685_Custom_setPWMFreq,"ax",%progbits
 390              		.align	2
 391              		.global	PCA9685_Custom_setPWMFreq
 392              		.thumb
 393              		.thumb_func
 394              		.type	PCA9685_Custom_setPWMFreq, %function
 395              	PCA9685_Custom_setPWMFreq:
 396              	.LFB69:
ARM GAS  C:\Users\Barney\AppData\Local\Temp\ccGhs5v4.s 			page 10


  77:PCA9685_Custom.c ****   //Serial.print("Attempting to set freq ");
 397              		.loc 1 77 0
 398              		.cfi_startproc
 399              		@ args = 0, pretend = 0, frame = 0
 400              		@ frame_needed = 0, uses_anonymous_args = 0
 401              	.LVL64:
 402 0000 38B5     		push	{r3, r4, r5, lr}
 403              		.cfi_def_cfa_offset 16
 404              		.cfi_offset 3, -16
 405              		.cfi_offset 4, -12
 406              		.cfi_offset 5, -8
 407              		.cfi_offset 14, -4
  80:PCA9685_Custom.c ****   float prescaleval = 25000000;
 408              		.loc 1 80 0
 409 0002 FFF7FEFF 		bl	__aeabi_f2d
 410              	.LVL65:
 411 0006 1CA3     		adr	r3, .L19
 412 0008 D3E90023 		ldrd	r2, [r3]
 413 000c FFF7FEFF 		bl	__aeabi_dmul
 414              	.LVL66:
 415 0010 FFF7FEFF 		bl	__aeabi_d2f
 416              	.LVL67:
  83:PCA9685_Custom.c ****   prescaleval -= 1;
 417              		.loc 1 83 0
 418 0014 0146     		mov	r1, r0
 419 0016 1A48     		ldr	r0, .L19+8
 420              	.LVL68:
 421 0018 FFF7FEFF 		bl	__aeabi_fdiv
 422              	.LVL69:
  84:PCA9685_Custom.c ****  
 423              		.loc 1 84 0
 424 001c 4FF07E51 		mov	r1, #1065353216
 425 0020 FFF7FEFF 		bl	__aeabi_fsub
 426              	.LVL70:
  86:PCA9685_Custom.c ****    
 427              		.loc 1 86 0
 428 0024 FFF7FEFF 		bl	__aeabi_f2d
 429              	.LVL71:
 430 0028 0022     		movs	r2, #0
 431 002a 164B     		ldr	r3, .L19+12
 432 002c FFF7FEFF 		bl	__aeabi_dadd
 433              	.LVL72:
 434 0030 FFF7FEFF 		bl	floor
 435              	.LVL73:
 436 0034 FFF7FEFF 		bl	__aeabi_d2uiz
 437              	.LVL74:
 438 0038 C5B2     		uxtb	r5, r0
 439              	.LVL75:
  88:PCA9685_Custom.c ****   uint8_t newmode = (oldmode&0x7F) | 0x10; // sleep
 440              		.loc 1 88 0
 441 003a 0020     		movs	r0, #0
 442 003c FFF7FEFF 		bl	PCA9685_Custom_Read8
 443              	.LVL76:
 444 0040 0446     		mov	r4, r0
 445              	.LVL77:
  89:PCA9685_Custom.c ****   PCA9685_Custom_Write8(PCA9685_MODE1, newmode); // go to sleep
 446              		.loc 1 89 0
ARM GAS  C:\Users\Barney\AppData\Local\Temp\ccGhs5v4.s 			page 11


 447 0042 00F06F01 		and	r1, r0, #111
 448              	.LVL78:
  90:PCA9685_Custom.c ****   PCA9685_Custom_Write8(PCA9685_PRESCALE, prescale); // set the prescaler
 449              		.loc 1 90 0
 450 0046 41F01001 		orr	r1, r1, #16
 451              	.LVL79:
 452 004a 0020     		movs	r0, #0
 453              	.LVL80:
 454 004c FFF7FEFF 		bl	PCA9685_Custom_Write8
 455              	.LVL81:
  91:PCA9685_Custom.c ****   PCA9685_Custom_Write8(PCA9685_MODE1, oldmode);
 456              		.loc 1 91 0
 457 0050 2946     		mov	r1, r5
 458 0052 FE20     		movs	r0, #254
 459 0054 FFF7FEFF 		bl	PCA9685_Custom_Write8
 460              	.LVL82:
  92:PCA9685_Custom.c ****   CyDelayUs(5);  
 461              		.loc 1 92 0
 462 0058 2146     		mov	r1, r4
 463 005a 0020     		movs	r0, #0
 464 005c FFF7FEFF 		bl	PCA9685_Custom_Write8
 465              	.LVL83:
  93:PCA9685_Custom.c ****   PCA9685_Custom_Write8(PCA9685_MODE1, oldmode | 0xa1);  //  This sets the MODE1 register to turn o
 466              		.loc 1 93 0
 467 0060 0520     		movs	r0, #5
 468 0062 FFF7FEFF 		bl	CyDelayUs
 469              	.LVL84:
  94:PCA9685_Custom.c **** }
 470              		.loc 1 94 0
 471 0066 64F05E01 		orn	r1, r4, #94
 472 006a C9B2     		uxtb	r1, r1
 473 006c 0020     		movs	r0, #0
 474 006e FFF7FEFF 		bl	PCA9685_Custom_Write8
 475              	.LVL85:
 476 0072 38BD     		pop	{r3, r4, r5, pc}
 477              	.LVL86:
 478              	.L20:
 479 0074 AFF30080 		.align	3
 480              	.L19:
 481 0078 CDCCCCCC 		.word	-858993459
 482 007c CCCCEC3F 		.word	1072483532
 483 0080 20BCBE45 		.word	1170127904
 484 0084 0000E03F 		.word	1071644672
 485              		.cfi_endproc
 486              	.LFE69:
 487              		.size	PCA9685_Custom_setPWMFreq, .-PCA9685_Custom_setPWMFreq
 488              		.section	.text.PCA9685_Custom_Begin,"ax",%progbits
 489              		.align	2
 490              		.global	PCA9685_Custom_Begin
 491              		.thumb
 492              		.thumb_func
 493              		.type	PCA9685_Custom_Begin, %function
 494              	PCA9685_Custom_Begin:
 495              	.LFB64:
  19:PCA9685_Custom.c ****     I2C_1_Start();
 496              		.loc 1 19 0
 497              		.cfi_startproc
ARM GAS  C:\Users\Barney\AppData\Local\Temp\ccGhs5v4.s 			page 12


 498              		@ args = 0, pretend = 0, frame = 0
 499              		@ frame_needed = 0, uses_anonymous_args = 0
 500 0000 08B5     		push	{r3, lr}
 501              		.cfi_def_cfa_offset 8
 502              		.cfi_offset 3, -8
 503              		.cfi_offset 14, -4
  20:PCA9685_Custom.c ****     PCA9685_Custom_Reset();
 504              		.loc 1 20 0
 505 0002 FFF7FEFF 		bl	I2C_1_Start
 506              	.LVL87:
  21:PCA9685_Custom.c ****     PCA9685_Custom_setPWMFreq(60);
 507              		.loc 1 21 0
 508 0006 FFF7FEFF 		bl	PCA9685_Custom_Reset
 509              	.LVL88:
  22:PCA9685_Custom.c **** }
 510              		.loc 1 22 0
 511 000a 0248     		ldr	r0, .L23
 512 000c FFF7FEFF 		bl	PCA9685_Custom_setPWMFreq
 513              	.LVL89:
 514 0010 08BD     		pop	{r3, pc}
 515              	.L24:
 516 0012 00BF     		.align	2
 517              	.L23:
 518 0014 00007042 		.word	1114636288
 519              		.cfi_endproc
 520              	.LFE64:
 521              		.size	PCA9685_Custom_Begin, .-PCA9685_Custom_Begin
 522              		.global	oscillator_frequency
 523              		.data
 524              		.align	2
 525              		.type	oscillator_frequency, %object
 526              		.size	oscillator_frequency, 4
 527              	oscillator_frequency:
 528 0000 60FECD4B 		.word	1271791200
 529              		.text
 530              	.Letext0:
 531              		.file 2 "c:\\program files (x86)\\cypress\\psoc creator\\4.2\\psoc creator\\import\\gnu\\arm\\5.4.
 532              		.file 3 "c:\\program files (x86)\\cypress\\psoc creator\\4.2\\psoc creator\\import\\gnu\\arm\\5.4.
 533              		.file 4 "Generated_Source\\PSoC5/cytypes.h"
 534              		.file 5 "Generated_Source\\PSoC5/core_cm3.h"
 535              		.file 6 "Generated_Source\\PSoC5/I2C_1.h"
 536              		.file 7 "Generated_Source\\PSoC5/CyLib.h"
 537              		.file 8 "c:\\program files (x86)\\cypress\\psoc creator\\4.2\\psoc creator\\import\\gnu\\arm\\5.4.